; Function Attrs: mustprogress uwtable
define void @_ZN5faiss27ReproduceDistancesObjectiveC2EiPKdS2_d(ptr noundef nonnull align 8 dereferenceable(80) initializes((0, 12), (16, 80)) %0, i32 noundef %1, ptr noundef readonly captures(none) %2, ptr noundef %3, double noundef %4) unnamed_addr #0 align 2 personality ptr @__gxx_personality_v0 {
  store ptr getelementptr inbounds nuw inrange(-16, 32) (i8, ptr @_ZTVN5faiss27ReproduceDistancesObjectiveE, i64 16), ptr %0, align 8, !tbaa !4
  %6 = getelementptr inbounds nuw i8, ptr %0, i64 16
  store double %4, ptr %6, align 8, !tbaa !62
  %7 = getelementptr inbounds nuw i8, ptr %0, i64 24
  tail call void @llvm.memset.p0.i64(ptr noundef nonnull align 8 dereferenceable(24) %7, i8 0, i64 24, i1 false)
  %8 = getelementptr inbounds nuw i8, ptr %0, i64 48
  store ptr %3, ptr %8, align 8, !tbaa !67
  %9 = getelementptr inbounds nuw i8, ptr %0, i64 56
  tail call void @llvm.memset.p0.i64(ptr noundef nonnull align 8 dereferenceable(24) %9, i8 0, i64 24, i1 false)
  %10 = getelementptr inbounds nuw i8, ptr %0, i64 8
  store i32 %1, ptr %10, align 8, !tbaa !7
  invoke void @_ZN5faiss27ReproduceDistancesObjective21set_affine_target_disEPKd(ptr noundef nonnull align 8 dereferenceable(80) %0, ptr noundef %2)
          to label %11 unwind label %12

11:                                               ; preds = %5
  ret void

12:                                               ; preds = %5
  %13 = landingpad { ptr, i32 }
          cleanup
  %14 = load ptr, ptr %9, align 8, !tbaa !20
  %.not.i.i.i = icmp eq ptr %14, null
  br i1 %.not.i.i.i, label %_ZNSt6vectorIdSaIdEED2Ev.exit, label %15

15:                                               ; preds = %12
  %16 = getelementptr inbounds nuw i8, ptr %0, i64 72
  %17 = load ptr, ptr %16, align 8, !tbaa !24
  %18 = ptrtoint ptr %17 to i64
  %19 = ptrtoint ptr %14 to i64
  %20 = sub i64 %18, %19
  tail call void @_ZdlPvm(ptr noundef nonnull %14, i64 noundef %20) #30
  br label %_ZNSt6vectorIdSaIdEED2Ev.exit

_ZNSt6vectorIdSaIdEED2Ev.exit:                    ; preds = %12, %15
  %21 = load ptr, ptr %7, align 8, !tbaa !20
  %.not.i.i.i6 = icmp eq ptr %21, null
  br i1 %.not.i.i.i6, label %_ZNSt6vectorIdSaIdEED2Ev.exit7, label %22

22:                                               ; preds = %_ZNSt6vectorIdSaIdEED2Ev.exit
  %23 = getelementptr inbounds nuw i8, ptr %0, i64 40
  %24 = load ptr, ptr %23, align 8, !tbaa !24
  %25 = ptrtoint ptr %24 to i64
  %26 = ptrtoint ptr %21 to i64
  %27 = sub i64 %25, %26
  tail call void @_ZdlPvm(ptr noundef nonnull %21, i64 noundef %27) #30
  br label %_ZNSt6vectorIdSaIdEED2Ev.exit7

_ZNSt6vectorIdSaIdEED2Ev.exit7:                   ; preds = %_ZNSt6vectorIdSaIdEED2Ev.exit, %22
  resume { ptr, i32 } %13
}